; ModuleID = '4/2178.c'
source_filename = "4/2178.c"
target datalayout = "e-m:e-p270:32:32-p271:32:32-p272:64:64-i64:64-f80:128-n8:16:32:64-S128"
target triple = "x86_64-pc-linux-gnu"

@.str = private unnamed_addr constant [5 x i8] c"%d%d\00", align 1
@.str.1 = private unnamed_addr constant [3 x i8] c"%d\00", align 1
@.str.2 = private unnamed_addr constant [4 x i8] c"%d\0A\00", align 1

; Function Attrs: noinline nounwind uwtable
define dso_local i32 @main() #0 {
  %1 = alloca i32, align 4
  %2 = alloca [100 x [100 x i32]], align 16
  %3 = alloca i32, align 4
  %4 = alloca i32, align 4
  %5 = alloca i32, align 4
  %6 = alloca i32, align 4
  %7 = alloca i32, align 4
  store i32 0, i32* %1, align 4
  %8 = call i32 (i8*, ...) @__isoc99_scanf(i8* getelementptr inbounds ([5 x i8], [5 x i8]* @.str, i64 0, i64 0), i32* %3, i32* %4)
  store i32 0, i32* %5, align 4
  br label %9

9:                                                ; preds = %30, %0
  %10 = load i32, i32* %5, align 4
  %11 = load i32, i32* %3, align 4
  %12 = icmp slt i32 %10, %11
  br i1 %12, label %13, label %33

13:                                               ; preds = %9
  store i32 0, i32* %6, align 4
  br label %14

14:                                               ; preds = %26, %13
  %15 = load i32, i32* %6, align 4
  %16 = load i32, i32* %4, align 4
  %17 = icmp slt i32 %15, %16
  br i1 %17, label %18, label %29

18:                                               ; preds = %14
  %19 = load i32, i32* %5, align 4
  %20 = sext i32 %19 to i64
  %21 = getelementptr inbounds [100 x [100 x i32]], [100 x [100 x i32]]* %2, i64 0, i64 %20
  %22 = load i32, i32* %6, align 4
  %23 = sext i32 %22 to i64
  %24 = getelementptr inbounds [100 x i32], [100 x i32]* %21, i64 0, i64 %23
  %25 = call i32 (i8*, ...) @__isoc99_scanf(i8* getelementptr inbounds ([3 x i8], [3 x i8]* @.str.1, i64 0, i64 0), i32* %24)
  br label %26

26:                                               ; preds = %18
  %27 = load i32, i32* %6, align 4
  %28 = add nsw i32 %27, 1
  store i32 %28, i32* %6, align 4
  br label %14

29:                                               ; preds = %14
  br label %30

30:                                               ; preds = %29
  %31 = load i32, i32* %5, align 4
  %32 = add nsw i32 %31, 1
  store i32 %32, i32* %5, align 4
  br label %9

33:                                               ; preds = %9
  store i32 0, i32* %5, align 4
  br label %34

34:                                               ; preds = %79, %33
  %35 = load i32, i32* %5, align 4
  %36 = load i32, i32* %4, align 4
  %37 = icmp slt i32 %35, %36
  br i1 %37, label %38, label %82

38:                                               ; preds = %34
  %39 = load i32, i32* %5, align 4
  store i32 %39, i32* %6, align 4
  store i32 0, i32* %7, align 4
  br label %40

40:                                               ; preds = %73, %38
  %41 = load i32, i32* %6, align 4
  %42 = icmp sge i32 %41, 0
  %43 = zext i1 %42 to i32
  %44 = load i32, i32* %7, align 4
  %45 = load i32, i32* %5, align 4
  %46 = icmp sle i32 %44, %45
  br i1 %46, label %47, label %78

47:                                               ; preds = %40
  %48 = load i32, i32* %7, align 4
  %49 = load i32, i32* %3, align 4
  %50 = sub nsw i32 %49, 1
  %51 = icmp sgt i32 %48, %50
  br i1 %51, label %63, label %52

52:                                               ; preds = %47
  %53 = load i32, i32* %6, align 4
  %54 = load i32, i32* %4, align 4
  %55 = sub nsw i32 %54, 1
  %56 = icmp sgt i32 %53, %55
  br i1 %56, label %63, label %57

57:                                               ; preds = %52
  %58 = load i32, i32* %7, align 4
  %59 = icmp slt i32 %58, 0
  br i1 %59, label %63, label %60

60:                                               ; preds = %57
  %61 = load i32, i32* %6, align 4
  %62 = icmp slt i32 %61, 0
  br i1 %62, label %63, label %64

63:                                               ; preds = %60, %57, %52, %47
  br label %73

64:                                               ; preds = %60
  %65 = load i32, i32* %7, align 4
  %66 = sext i32 %65 to i64
  %67 = getelementptr inbounds [100 x [100 x i32]], [100 x [100 x i32]]* %2, i64 0, i64 %66
  %68 = load i32, i32* %6, align 4
  %69 = sext i32 %68 to i64
  %70 = getelementptr inbounds [100 x i32], [100 x i32]* %67, i64 0, i64 %69
  %71 = load i32, i32* %70, align 4
  %72 = call i32 (i8*, ...) @printf(i8* getelementptr inbounds ([4 x i8], [4 x i8]* @.str.2, i64 0, i64 0), i32 %71)
  br label %73

73:                                               ; preds = %64, %63
  %74 = load i32, i32* %6, align 4
  %75 = add nsw i32 %74, -1
  store i32 %75, i32* %6, align 4
  %76 = load i32, i32* %7, align 4
  %77 = add nsw i32 %76, 1
  store i32 %77, i32* %7, align 4
  br label %40

78:                                               ; preds = %40
  br label %79

79:                                               ; preds = %78
  %80 = load i32, i32* %5, align 4
  %81 = add nsw i32 %80, 1
  store i32 %81, i32* %5, align 4
  br label %34

82:                                               ; preds = %34
  store i32 1, i32* %5, align 4
  br label %83

83:                                               ; preds = %132, %82
  %84 = load i32, i32* %5, align 4
  %85 = load i32, i32* %3, align 4
  %86 = sub nsw i32 %85, 1
  %87 = icmp sle i32 %84, %86
  br i1 %87, label %88, label %135

88:                                               ; preds = %83
  %89 = load i32, i32* %4, align 4
  %90 = sub nsw i32 %89, 1
  store i32 %90, i32* %6, align 4
  %91 = load i32, i32* %5, align 4
  store i32 %91, i32* %7, align 4
  br label %92

92:                                               ; preds = %126, %88
  %93 = load i32, i32* %6, align 4
  %94 = icmp sge i32 %93, 0
  %95 = zext i1 %94 to i32
  %96 = load i32, i32* %7, align 4
  %97 = load i32, i32* %3, align 4
  %98 = sub nsw i32 %97, 1
  %99 = icmp sle i32 %96, %98
  br i1 %99, label %100, label %131

100:                                              ; preds = %92
  %101 = load i32, i32* %7, align 4
  %102 = load i32, i32* %3, align 4
  %103 = sub nsw i32 %102, 1
  %104 = icmp sgt i32 %101, %103
  br i1 %104, label %116, label %105

105:                                              ; preds = %100
  %106 = load i32, i32* %6, align 4
  %107 = load i32, i32* %4, align 4
  %108 = sub nsw i32 %107, 1
  %109 = icmp sgt i32 %106, %108
  br i1 %109, label %116, label %110

110:                                              ; preds = %105
  %111 = load i32, i32* %7, align 4
  %112 = icmp slt i32 %111, 0
  br i1 %112, label %116, label %113

113:                                              ; preds = %110
  %114 = load i32, i32* %6, align 4
  %115 = icmp slt i32 %114, 0
  br i1 %115, label %116, label %117

116:                                              ; preds = %113, %110, %105, %100
  br label %126

117:                                              ; preds = %113
  %118 = load i32, i32* %7, align 4
  %119 = sext i32 %118 to i64
  %120 = getelementptr inbounds [100 x [100 x i32]], [100 x [100 x i32]]* %2, i64 0, i64 %119
  %121 = load i32, i32* %6, align 4
  %122 = sext i32 %121 to i64
  %123 = getelementptr inbounds [100 x i32], [100 x i32]* %120, i64 0, i64 %122
  %124 = load i32, i32* %123, align 4
  %125 = call i32 (i8*, ...) @printf(i8* getelementptr inbounds ([4 x i8], [4 x i8]* @.str.2, i64 0, i64 0), i32 %124)
  br label %126

126:                                              ; preds = %117, %116
  %127 = load i32, i32* %6, align 4
  %128 = add nsw i32 %127, -1
  store i32 %128, i32* %6, align 4
  %129 = load i32, i32* %7, align 4
  %130 = add nsw i32 %129, 1
  store i32 %130, i32* %7, align 4
  br label %92

131:                                              ; preds = %92
  br label %132

132:                                              ; preds = %131
  %133 = load i32, i32* %5, align 4
  %134 = add nsw i32 %133, 1
  store i32 %134, i32* %5, align 4
  br label %83

135:                                              ; preds = %83
  ret i32 0
}

declare dso_local i32 @__isoc99_scanf(i8*, ...) #1

declare dso_local i32 @printf(i8*, ...) #1


!llvm.module.flags = !{!0}
!llvm.ident = !{!1}

!0 = !{i32 1, !"wchar_size", i32 4}
!1 = !{!"clang version 10.0.0-4ubuntu1 "}
